target datalayout = "e-m:e-p270:32:32-p271:32:32-p272:64:64-i64:64-i128:128-f80:128-n8:16:32:64-S128"
target triple = "x86_64-pc-linux-gnu"

%"class.Ipopt::DenseVector" = type { %"class.Ipopt::Vector.base", ptr, ptr, ptr, i8, i8, double }
%"class.Ipopt::Vector.base" = type <{ %"class.Ipopt::TaggedObject", %"class.Ipopt::SmartPtr", %"class.Ipopt::CachedResults", i32, [4 x i8], double, i32, [4 x i8], double, i32, [4 x i8], double, i32, [4 x i8], double, i32, [4 x i8], double, i32, [4 x i8], double, i32, [4 x i8], double, i32, i8 }>
%"class.Ipopt::TaggedObject" = type { %"class.Ipopt::ReferencedObject.base", %"class.Ipopt::Subject", i32, i32 }
%"class.Ipopt::ReferencedObject.base" = type <{ ptr, i32 }>
%"class.Ipopt::Subject" = type { ptr, %"class.std::vector" }
%"class.std::vector" = type { %"struct.std::_Vector_base" }
%"struct.std::_Vector_base" = type { %"struct.std::_Vector_base<Ipopt::Observer *, std::allocator<Ipopt::Observer *>>::_Vector_impl" }
%"struct.std::_Vector_base<Ipopt::Observer *, std::allocator<Ipopt::Observer *>>::_Vector_impl" = type { %"struct.std::_Vector_base<Ipopt::Observer *, std::allocator<Ipopt::Observer *>>::_Vector_impl_data" }
%"struct.std::_Vector_base<Ipopt::Observer *, std::allocator<Ipopt::Observer *>>::_Vector_impl_data" = type { ptr, ptr, ptr }
%"class.Ipopt::SmartPtr" = type { ptr }
%"class.Ipopt::CachedResults" = type { ptr, i32, ptr }
%"class.Ipopt::Vector" = type <{ %"class.Ipopt::TaggedObject", %"class.Ipopt::SmartPtr", %"class.Ipopt::CachedResults", i32, [4 x i8], double, i32, [4 x i8], double, i32, [4 x i8], double, i32, [4 x i8], double, i32, [4 x i8], double, i32, [4 x i8], double, i32, [4 x i8], double, i32, i8, [3 x i8] }>
%"class.Ipopt::VectorSpace" = type { %"class.Ipopt::ReferencedObject.base", i32 }

; Function Attrs: mustprogress uwtable
define linkonce_odr noundef ptr @_ZNK5Ipopt16DenseVectorSpace23AllocateInternalStorageEv(ptr noundef nonnull align 8 dereferenceable(160) %0) #0 comdat align 2 {
  %2 = alloca ptr, align 8
  %3 = alloca ptr, align 8
  store ptr %0, ptr %3, align 8
  %4 = load ptr, ptr %3, align 8
  %5 = call noundef i32 @_ZNK5Ipopt11VectorSpace3DimEv(ptr noundef nonnull align 8 dereferenceable(16) %4)
  %6 = icmp sgt i32 %5, 0
  br i1 %6, label %7, label %15

7:                                                ; preds = %1
  %8 = call noundef i32 @_ZNK5Ipopt11VectorSpace3DimEv(ptr noundef nonnull align 8 dereferenceable(16) %4)
  %9 = sext i32 %8 to i64
  %10 = call { i64, i1 } @llvm.umul.with.overflow.i64(i64 %9, i64 8)
  %11 = extractvalue { i64, i1 } %10, 1
  %12 = extractvalue { i64, i1 } %10, 0
  %13 = select i1 %11, i64 -1, i64 %12
  %14 = call noalias noundef nonnull ptr @_Znam(i64 noundef %13) #14
  store ptr %14, ptr %2, align 8
  br label %16

15:                                               ; preds = %1
  store ptr null, ptr %2, align 8
  br label %16

16:                                               ; preds = %15, %7
  %17 = load ptr, ptr %2, align 8
  ret ptr %17
}

; Function Attrs: mustprogress nounwind uwtable
define linkonce_odr noundef i32 @_ZNK5Ipopt11VectorSpace3DimEv(ptr noundef nonnull align 8 dereferenceable(16) %0) #1 comdat align 2 {
  %2 = alloca ptr, align 8
  store ptr %0, ptr %2, align 8
  %3 = load ptr, ptr %2, align 8
  %4 = getelementptr inbounds %"class.Ipopt::VectorSpace", ptr %3, i32 0, i32 1
  %5 = load i32, ptr %4, align 4
  ret i32 %5
}

; Function Attrs: mustprogress nounwind uwtable
define linkonce_odr noundef ptr @_ZNK5Ipopt8SmartPtrIKNS_11VectorSpaceEEptEv(ptr noundef nonnull align 8 dereferenceable(8) %0) #1 comdat align 2 {
  %2 = alloca ptr, align 8
  store ptr %0, ptr %2, align 8
  %3 = load ptr, ptr %2, align 8
  %4 = getelementptr inbounds %"class.Ipopt::SmartPtr", ptr %3, i32 0, i32 0
  %5 = load ptr, ptr %4, align 8
  ret ptr %5
}

; Function Attrs: mustprogress uwtable
define linkonce_odr noundef ptr @_ZN5Ipopt11DenseVector16values_allocatedEv(ptr noundef nonnull align 8 dereferenceable(248) %0) #0 comdat align 2 {
  %2 = alloca ptr, align 8
  store ptr %0, ptr %2, align 8
  %3 = load ptr, ptr %2, align 8
  %4 = getelementptr inbounds %"class.Ipopt::DenseVector", ptr %3, i32 0, i32 2
  %5 = load ptr, ptr %4, align 8
  %6 = icmp eq ptr %5, null
  br i1 %6, label %7, label %12

7:                                                ; preds = %1
  %8 = getelementptr inbounds %"class.Ipopt::DenseVector", ptr %3, i32 0, i32 1
  %9 = load ptr, ptr %8, align 8
  %10 = call noundef ptr @_ZNK5Ipopt16DenseVectorSpace23AllocateInternalStorageEv(ptr noundef nonnull align 8 dereferenceable(160) %9)
  %11 = getelementptr inbounds %"class.Ipopt::DenseVector", ptr %3, i32 0, i32 2
  store ptr %10, ptr %11, align 8
  br label %12

12:                                               ; preds = %7, %1
  %13 = getelementptr inbounds %"class.Ipopt::DenseVector", ptr %3, i32 0, i32 2
  %14 = load ptr, ptr %13, align 8
  ret ptr %14
}

; Function Attrs: mustprogress uwtable
define linkonce_odr noundef i32 @_ZNK5Ipopt6Vector3DimEv(ptr noundef nonnull align 8 dereferenceable(205) %0) #0 comdat align 2 {
  %2 = alloca ptr, align 8
  store ptr %0, ptr %2, align 8
  %3 = load ptr, ptr %2, align 8
  %4 = getelementptr inbounds %"class.Ipopt::Vector", ptr %3, i32 0, i32 1
  %5 = call noundef ptr @_ZNK5Ipopt8SmartPtrIKNS_11VectorSpaceEEptEv(ptr noundef nonnull align 8 dereferenceable(8) %4)
  %6 = call noundef i32 @_ZNK5Ipopt11VectorSpace3DimEv(ptr noundef nonnull align 8 dereferenceable(16) %5)
  ret i32 %6
}

; Function Attrs: mustprogress uwtable
define void @_ZN5Ipopt11DenseVector8AxpyImplEdRKNS_6VectorE(ptr noundef nonnull align 8 dereferenceable(248) %0, double noundef %1, ptr noundef nonnull align 8 dereferenceable(205) %2) unnamed_addr #0 align 2 {
  %4 = alloca ptr, align 8
  %5 = alloca double, align 8
  %6 = alloca ptr, align 8
  %7 = alloca ptr, align 8
  %8 = alloca ptr, align 8
  %9 = alloca i32, align 4
  store ptr %0, ptr %4, align 8
  store double %1, ptr %5, align 8
  store ptr %2, ptr %6, align 8
  %10 = load ptr, ptr %4, align 8
  %11 = load ptr, ptr %6, align 8
  store ptr %11, ptr %7, align 8
  %12 = call noundef i32 @_ZNK5Ipopt6Vector3DimEv(ptr noundef nonnull align 8 dereferenceable(205) %10)
  %13 = icmp eq i32 %12, 0
  br i1 %13, label %14, label %15

14:                                               ; preds = %3
  br label %87

15:                                               ; preds = %3
  %16 = getelementptr inbounds %"class.Ipopt::DenseVector", ptr %10, i32 0, i32 5
  %17 = load i8, ptr %16, align 1
  %18 = trunc i8 %17 to i1
  br i1 %18, label %19, label %60

19:                                               ; preds = %15
  %20 = load ptr, ptr %7, align 8
  %21 = getelementptr inbounds %"class.Ipopt::DenseVector", ptr %20, i32 0, i32 5
  %22 = load i8, ptr %21, align 1
  %23 = trunc i8 %22 to i1
  br i1 %23, label %24, label %32

24:                                               ; preds = %19
  %25 = load double, ptr %5, align 8
  %26 = load ptr, ptr %7, align 8
  %27 = getelementptr inbounds %"class.Ipopt::DenseVector", ptr %26, i32 0, i32 6
  %28 = load double, ptr %27, align 8
  %29 = getelementptr inbounds %"class.Ipopt::DenseVector", ptr %10, i32 0, i32 6
  %30 = load double, ptr %29, align 8
  %31 = call double @llvm.fmuladd.f64(double %25, double %28, double %30)
  store double %31, ptr %29, align 8
  br label %59

32:                                               ; preds = %19
  %33 = getelementptr inbounds %"class.Ipopt::DenseVector", ptr %10, i32 0, i32 5
  store i8 0, ptr %33, align 1
  %34 = call noundef ptr @_ZN5Ipopt11DenseVector16values_allocatedEv(ptr noundef nonnull align 8 dereferenceable(248) %10)
  store ptr %34, ptr %8, align 8
  store i32 0, ptr %9, align 4
  br label %35

35:                                               ; preds = %55, %32
  %36 = load i32, ptr %9, align 4
  %37 = call noundef i32 @_ZNK5Ipopt6Vector3DimEv(ptr noundef nonnull align 8 dereferenceable(205) %10)
  %38 = icmp slt i32 %36, %37
  br i1 %38, label %39, label %58

39:                                               ; preds = %35
  %40 = getelementptr inbounds %"class.Ipopt::DenseVector", ptr %10, i32 0, i32 6
  %41 = load double, ptr %40, align 8
  %42 = load double, ptr %5, align 8
  %43 = load ptr, ptr %7, align 8
  %44 = getelementptr inbounds %"class.Ipopt::DenseVector", ptr %43, i32 0, i32 2
  %45 = load ptr, ptr %44, align 8
  %46 = load i32, ptr %9, align 4
  %47 = sext i32 %46 to i64
  %48 = getelementptr inbounds double, ptr %45, i64 %47
  %49 = load double, ptr %48, align 8
  %50 = call double @llvm.fmuladd.f64(double %42, double %49, double %41)
  %51 = load ptr, ptr %8, align 8
  %52 = load i32, ptr %9, align 4
  %53 = sext i32 %52 to i64
  %54 = getelementptr inbounds double, ptr %51, i64 %53
  store double %50, ptr %54, align 8
  br label %55

55:                                               ; preds = %39
  %56 = load i32, ptr %9, align 4
  %57 = add nsw i32 %56, 1
  store i32 %57, ptr %9, align 4
  br label %35, !llvm.loop !4

58:                                               ; preds = %35
  br label %59

59:                                               ; preds = %58, %24
  br label %87

60:                                               ; preds = %15
  %61 = load ptr, ptr %7, align 8
  %62 = getelementptr inbounds %"class.Ipopt::DenseVector", ptr %61, i32 0, i32 5
  %63 = load i8, ptr %62, align 1
  %64 = trunc i8 %63 to i1
  br i1 %64, label %65, label %78

65:                                               ; preds = %60
  %66 = load ptr, ptr %7, align 8
  %67 = getelementptr inbounds %"class.Ipopt::DenseVector", ptr %66, i32 0, i32 6
  %68 = load double, ptr %67, align 8
  %69 = fcmp une double %68, 0.000000e+00
  br i1 %69, label %70, label %77

70:                                               ; preds = %65
  %71 = call noundef i32 @_ZNK5Ipopt6Vector3DimEv(ptr noundef nonnull align 8 dereferenceable(205) %10)
  %72 = load double, ptr %5, align 8
  %73 = load ptr, ptr %7, align 8
  %74 = getelementptr inbounds %"class.Ipopt::DenseVector", ptr %73, i32 0, i32 6
  %75 = getelementptr inbounds %"class.Ipopt::DenseVector", ptr %10, i32 0, i32 2
  %76 = load ptr, ptr %75, align 8
  call void @_ZN5Ipopt10IpBlasAxpyEidPKdiPdi(i32 noundef %71, double noundef %72, ptr noundef %74, i32 noundef 0, ptr noundef %76, i32 noundef 1)
  br label %77

77:                                               ; preds = %70, %65
  br label %86

78:                                               ; preds = %60
  %79 = call noundef i32 @_ZNK5Ipopt6Vector3DimEv(ptr noundef nonnull align 8 dereferenceable(205) %10)
  %80 = load double, ptr %5, align 8
  %81 = load ptr, ptr %7, align 8
  %82 = getelementptr inbounds %"class.Ipopt::DenseVector", ptr %81, i32 0, i32 2
  %83 = load ptr, ptr %82, align 8
  %84 = getelementptr inbounds %"class.Ipopt::DenseVector", ptr %10, i32 0, i32 2
  %85 = load ptr, ptr %84, align 8
  call void @_ZN5Ipopt10IpBlasAxpyEidPKdiPdi(i32 noundef %79, double noundef %80, ptr noundef %83, i32 noundef 1, ptr noundef %85, i32 noundef 1)
  br label %86

86:                                               ; preds = %78, %77
  br label %87

87:                                               ; preds = %86, %59, %14
  ret void
}