; Function Attrs: mustprogress uwtable
define void @_ZN5Ipopt11DenseVector8AxpyImplEdRKNS_6VectorE(ptr nocapture noundef nonnull align 8 dereferenceable(248) %0, double noundef %1, ptr noundef nonnull align 8 dereferenceable(205) %2) unnamed_addr #0 align 2 {
  %4 = getelementptr inbounds i8, ptr %0, i64 56
  %5 = load ptr, ptr %4, align 8
  %6 = getelementptr inbounds i8, ptr %5, i64 12
  %7 = load i32, ptr %6, align 4
  %8 = icmp eq i32 %7, 0
  br i1 %8, label %.loopexit, label %9

9:                                                ; preds = %3
  %10 = getelementptr inbounds i8, ptr %0, i64 233
  %11 = load i8, ptr %10, align 1
  %12 = and i8 %11, 1
  %.not = icmp eq i8 %12, 0
  %13 = getelementptr inbounds i8, ptr %2, i64 233
  %14 = load i8, ptr %13, align 1
  %15 = and i8 %14, 1
  %.not17 = icmp eq i8 %15, 0
  br i1 %.not, label %54, label %16

16:                                               ; preds = %9
  br i1 %.not17, label %23, label %17

17:                                               ; preds = %16
  %18 = getelementptr inbounds i8, ptr %2, i64 240
  %19 = load double, ptr %18, align 8
  %20 = getelementptr inbounds i8, ptr %0, i64 240
  %21 = load double, ptr %20, align 8
  %22 = tail call double @llvm.fmuladd.f64(double %1, double %19, double %21)
  store double %22, ptr %20, align 8
  br label %.loopexit

23:                                               ; preds = %16
  store i8 0, ptr %10, align 1
  %24 = getelementptr inbounds i8, ptr %0, i64 216
  %25 = load ptr, ptr %24, align 8
  %26 = icmp eq ptr %25, null
  br i1 %26, label %27, label %_ZN5Ipopt11DenseVector16values_allocatedEv.exit

27:                                               ; preds = %23
  %28 = getelementptr inbounds i8, ptr %0, i64 208
  %29 = load ptr, ptr %28, align 8
  %30 = getelementptr inbounds i8, ptr %29, i64 12
  %31 = load i32, ptr %30, align 4
  %32 = icmp sgt i32 %31, 0
  br i1 %32, label %33, label %_ZNK5Ipopt16DenseVectorSpace23AllocateInternalStorageEv.exit.i

33:                                               ; preds = %27
  %34 = zext nneg i32 %31 to i64
  %35 = shl nuw nsw i64 %34, 3
  %36 = tail call noalias noundef nonnull ptr @_Znam(i64 noundef %35) #18
  br label %_ZNK5Ipopt16DenseVectorSpace23AllocateInternalStorageEv.exit.i

_ZNK5Ipopt16DenseVectorSpace23AllocateInternalStorageEv.exit.i: ; preds = %33, %27
  %.0.i.i = phi ptr [ %36, %33 ], [ null, %27 ]
  store ptr %.0.i.i, ptr %24, align 8
  br label %_ZN5Ipopt11DenseVector16values_allocatedEv.exit

_ZN5Ipopt11DenseVector16values_allocatedEv.exit:  ; preds = %23, %_ZNK5Ipopt16DenseVectorSpace23AllocateInternalStorageEv.exit.i
  %37 = phi ptr [ %.0.i.i, %_ZNK5Ipopt16DenseVectorSpace23AllocateInternalStorageEv.exit.i ], [ %25, %23 ]
  %38 = load i32, ptr %6, align 4
  %39 = icmp sgt i32 %38, 0
  br i1 %39, label %.lr.ph, label %.loopexit

.lr.ph:                                           ; preds = %_ZN5Ipopt11DenseVector16values_allocatedEv.exit
  %40 = getelementptr inbounds i8, ptr %0, i64 240
  %41 = getelementptr inbounds i8, ptr %2, i64 216
  br label %42

42:                                               ; preds = %.lr.ph, %42
  %indvars.iv = phi i64 [ 0, %.lr.ph ], [ %indvars.iv.next, %42 ]
  %43 = load double, ptr %40, align 8
  %44 = load ptr, ptr %41, align 8
  %45 = getelementptr inbounds double, ptr %44, i64 %indvars.iv
  %46 = load double, ptr %45, align 8
  %47 = tail call double @llvm.fmuladd.f64(double %1, double %46, double %43)
  %48 = getelementptr inbounds double, ptr %37, i64 %indvars.iv
  store double %47, ptr %48, align 8
  %indvars.iv.next = add nuw nsw i64 %indvars.iv, 1
  %49 = load ptr, ptr %4, align 8
  %50 = getelementptr inbounds i8, ptr %49, i64 12
  %51 = load i32, ptr %50, align 4
  %52 = sext i32 %51 to i64
  %53 = icmp slt i64 %indvars.iv.next, %52
  br i1 %53, label %42, label %.loopexit, !llvm.loop !7

54:                                               ; preds = %9
  br i1 %.not17, label %62, label %55

55:                                               ; preds = %54
  %56 = getelementptr inbounds i8, ptr %2, i64 240
  %57 = load double, ptr %56, align 8
  %58 = fcmp une double %57, 0.000000e+00
  br i1 %58, label %59, label %.loopexit

59:                                               ; preds = %55
  %60 = getelementptr inbounds i8, ptr %0, i64 216
  %61 = load ptr, ptr %60, align 8
  tail call void @_ZN5Ipopt10IpBlasAxpyEidPKdiPdi(i32 noundef %7, double noundef %1, ptr noundef nonnull %56, i32 noundef 0, ptr noundef %61, i32 noundef 1)
  br label %.loopexit

62:                                               ; preds = %54
  %63 = getelementptr inbounds i8, ptr %2, i64 216
  %64 = load ptr, ptr %63, align 8
  %65 = getelementptr inbounds i8, ptr %0, i64 216
  %66 = load ptr, ptr %65, align 8
  tail call void @_ZN5Ipopt10IpBlasAxpyEidPKdiPdi(i32 noundef %7, double noundef %1, ptr noundef %64, i32 noundef 1, ptr noundef %66, i32 noundef 1)
  br label %.loopexit

.loopexit:                                        ; preds = %42, %_ZN5Ipopt11DenseVector16values_allocatedEv.exit, %62, %59, %55, %17, %3
  ret void
}